MPASM 5.75  /HOME/ANDREW/MPLABXPROJECTS/LAB9   11-17-2017  14:23:53         PAGE  1


LOC  OBJECT CODE     LINE SOURCE TEXT
  VALUE

                      00001 ;**********************************************************************
                      00002 ;   This file is a basic code template for object module code         *
                      00003 ;   generation on the PIC16F877A. This file contains the              *
                      00004 ;   basic code building blocks to build upon.                         *
                      00005 ;                                                                     *
                      00006 ;   Refer to the MPASM User's Guide for additional information on     *
                      00007 ;   features of the assembler and linker (Document DS33014).          *
                      00008 ;                                                                     *
                      00009 ;   Refer to the respective PIC data sheet for additional             *
                      00010 ;   information on the instruction set.                               *
                      00011 ;                                                                     *
                      00012 ;**********************************************************************
                      00013 ;                                                                     *
                      00014 ;    Filename:      Lab 9.asm                                         *
                      00015 ;    Date:          11/16/17                                          *
                      00016 ;    File Version:  0.0.1                                             *
                      00017 ;                                                                     *
                      00018 ;    Author:        Andrew W. Harn                                    *
                      00019 ;    Company:       Geneva College                                    *
                      00020 ;                                                                     * 
                      00021 ;                                                                     *
                      00022 ;**********************************************************************
                      00023 ;                                                                     *
                      00024 ;    Files required: P16F877A.INC                                     *
                      00025 ;                    P16F877A_LCDWDBMOD.ASM                           *   
                      00026 ;                                                                     *
                      00027 ;                                                                     *
                      00028 ;**********************************************************************
                      00029 ;                                                                     *
                      00030 ;    Notes:                                                           *
                      00031 ;                                                                     *
                      00032 ;                                                                     *
                      00033 ;                                                                     *
                      00034 ;                                                                     *
                      00035 ;**********************************************************************
                      00036 
                      00037 
                      00038     list        p=16f877a   ; list directive to define processor
                      00039     #include    <p16f877a.inc>  ; processor specific variable definitions
                      00001         LIST
                      00002 
                      00003 ;==========================================================================
                      00004 ; Build date : Jul 02 2017
                      00005 ;  MPASM PIC16F877A processor include
                      00006 ; 
                      00007 ;  (c) Copyright 1999-2017 Microchip Technology, All rights reserved
                      00008 ;==========================================================================
                      00009 
                      00567         LIST
                      00040     
2007   3F3A           00041     __CONFIG _CP_OFF & _WDT_OFF & _BODEN_OFF & _PWRTE_OFF & _HS_OSC & _WRT_OFF & _LVP_OFF & _CPD_OFF & _
                            DEBUG_OFF
                      00042 
MPASM 5.75  /HOME/ANDREW/MPLABXPROJECTS/LAB9   11-17-2017  14:23:53         PAGE  2


LOC  OBJECT CODE     LINE SOURCE TEXT
  VALUE

                      00043 ; '__CONFIG' directive is used to embed configuration data within .asm file.
                      00044 ; The labels following the directive are located in the respective .inc file.
                      00045 ; See respective data sheet for additional information on configuration word.
                      00046 
                      00047 ;***** VARIABLE DEFINITIONS (examples)
                      00048 
                      00049 ; example of using Shared Uninitialized Data Section
                      00050 INT_VAR     UDATA_SHR      
0000                  00051 w_temp      RES     1       ; variable used for context saving 
0001                  00052 status_temp RES     1       ; variable used for context saving
0002                  00053 pclath_temp RES     1       ; variable used for context saving
0003                  00054 pattern     RES     1
                      00055 
                      00056 ; example of using Uninitialized Data Section
                      00057 TEMP_VAR    UDATA           ; explicit address specified is not required
0000                  00058 temp_count  RES     1       ; temporary variable (example)
0001                  00059 ASCII       RES     1
0002                  00060 add         RES     1
                      00061             
                      00062 ; example of using Overlayed Uninitialized Data Section
                      00063 ; in this example both variables are assigned the same GPR location by linker
                      00064 G_DATA      UDATA_OVR       ; explicit address can be specified
0000                  00065 flag        RES 2           ; temporary variable (shared locations - G_DATA)
                      00066 
                      00067 G_DATA      UDATA_OVR   
0000                  00068 count       RES 2           ; temporary variable (shared locations - G_DATA)
                      00069 
Warning[205]: Found directive in column 1. (extern)
  0000                00070 extern      LCDInit
Warning[205]: Found directive in column 1. (extern)
  0000                00071 extern      temp_wr
Warning[205]: Found directive in column 1. (extern)
  0000                00072 extern      i_write
Warning[205]: Found directive in column 1. (extern)
  0000                00073 extern      d_write
                      00074 ;**********************************************************************
                      00075 RESET_VECTOR    CODE    0x0000 ; processor reset vector
0000   0000           00076     nop                        ; nop for icd
0001   ???? ????      00077     pagesel start
0003   2???           00078     goto    start              ; go to beginning of program
                      00079 
                      00080 
                      00081 INT_VECTOR      CODE    0x0004 ; interrupt vector location
                      00082 
0004                  00083 INTERRUPT
                      00084 
0004   00??           00085     movwf   w_temp          ; save off current W register contents
0005   0803           00086     movf    STATUS,w        ; move status register into W register
0006   00??           00087     movwf   status_temp     ; save off contents of STATUS register
0007   080A           00088     movf    PCLATH,w        ; move pclath register into w register
0008   00??           00089     movwf   pclath_temp     ; save off contents of PCLATH register
                      00090 
                      00091 ; isr code can go here or be located as a call subroutine elsewhere
MPASM 5.75  /HOME/ANDREW/MPLABXPROJECTS/LAB9   11-17-2017  14:23:53         PAGE  3


LOC  OBJECT CODE     LINE SOURCE TEXT
  VALUE

                      00092 
0009   08??           00093     movf    pclath_temp,w   ; retrieve copy of PCLATH register
000A   008A           00094     movwf   PCLATH          ; restore pre-isr PCLATH register contents
000B   08??           00095     movf    status_temp,w   ; retrieve copy of STATUS register
000C   0083           00096     movwf   STATUS          ; restore pre-isr STATUS register contents
000D   0E??           00097     swapf   w_temp,f
000E   0E??           00098     swapf   w_temp,w        ; restore pre-isr W register contents
000F   0009           00099     retfie                  ; return from interrupt
                      00100 
                      00101 MAIN_PROG       CODE
                      00102 
0000                  00103 start
0000   3007           00104     movlw   0x07
0001   1683 1303      00105     banksel ADCON1
Message[302]: Register in operand not in bank 0.  Ensure that bank bits are correct.
0003   009F           00106     movwf   ADCON1
                      00107     
0004   ???? ????      00108     pagesel LCDInit             ; Initialize LCD
0006   2???           00109     call    LCDInit
                      00110     
0007   ???? ????      00111     banksel temp_wr             ; Clear display instruction to temp_wr
0009   3001           00112     movlw   0x01        
000A   00??           00113     movwf   temp_wr     
                      00114     
000B   ???? ????      00115     pagesel i_write             ; Write instruction to LCD
000D   2???           00116     call    i_write
                      00117        
000E   ???? ????      00118     pagesel kpreset             ; Prepare keypad for use
0010   2???           00119     call    kpreset
                      00120     
0011                  00121 loop
0011   ???? ????      00122     pagesel kpread
0013   1283 1303      00123     banksel PORTC
0015   0187           00124     clrf    PORTC
0016   1E07           00125     btfss   PORTC,4             ; Start reading if rows are pressed
0017   2???           00126     goto    kpread 
0018   1E87           00127     btfss   PORTC,5
0019   2???           00128     goto    kpread
001A   1F07           00129     btfss   PORTC,6
001B   2???           00130     goto    kpread
001C   1F87           00131     btfss   PORTC,7
001D   2???           00132     goto    kpread
001E   ???? ????      00133     pagesel loop                ; Go back to looping if nothing happened
0020   2???           00134     goto    loop                
                      00135     
0021                  00136 kpread
0021   1283 1303      00137     banksel PORTC
0023   3000           00138     movlw   0x00
0024   0087           00139     movwf   PORTC
0025   0807           00140     movfw   PORTC               ; Read Port C value, this will be row pattern
0026   39F0           00141     andlw   B'11110000'         ; Ensure unwanted bits are suppressed
0027   00??           00142     movwf   pattern
0028   1683 1303      00143     banksel TRISC
MPASM 5.75  /HOME/ANDREW/MPLABXPROJECTS/LAB9   11-17-2017  14:23:53         PAGE  4


LOC  OBJECT CODE     LINE SOURCE TEXT
  VALUE

002A   300E           00144     movlw   B'00001110'
Message[302]: Register in operand not in bank 0.  Ensure that bank bits are correct.
002B   0087           00145     movwf   TRISC
002C   1283 1303      00146     banksel PORTC
002E   3000           00147     movlw   00
002F   0087           00148     movwf   PORTC               ; Ensure output values still zero
0030   0807           00149     movfw   PORTC               ; Read Port C value, this will be column pattern
0031   390E           00150     andlw   B'00001110'         ; Ensure unwanted bits are suppressed
0032   04??           00151     iorwf   pattern,1           ; OR those results into the pattern
                      00152     
0033                  00153 convert         
0033   1003           00154     bcf         STATUS,0
0034   0C??           00155     rrf         pattern,1           ; Discard bit 0 which is not used
0035   ???? ????      00156     banksel     add
0037   01??           00157     clrf        add
0038   ???? ????      00158     pagesel     kp1
003A   1B00           00159     btfsc       pattern,6
003B   2???           00160     goto        kp1
003C   ???? ????      00161     pagesel     col_find
003E   2???           00162     goto        col_find            ; Here if row 1, kpad_add stays as is
                      00163     
003F                  00164 kp1
003F   ???? ????      00165     pagesel     kp2
0041   1A80           00166     btfsc       pattern,5
0042   2???           00167     goto        kp2
0043   3004           00168     movlw       B'00000100'         ; Here if row 2
0044   ???? ????      00169     banksel     add
0046   04??           00170     iorwf       add,1               ; Form table address
0047   ???? ????      00171     pagesel     col_find
0049   2???           00172     goto        col_find
                      00173     
004A                  00174 kp2
004A   ???? ????      00175     pagesel     kp3
004C   1A00           00176     btfsc       pattern,4
004D   2???           00177     goto        kp3
004E   3008           00178     movlw       B'00001000'         ; Here if row 3
004F   ???? ????      00179     banksel     add
0051   04??           00180     iorwf       add,1               ; Form table address
0052   ???? ????      00181     pagesel     col_find
0054   2???           00182     goto        col_find
                      00183     
0055                  00184 kp3
0055   ???? ????      00185     pagesel     kp4
0057   1980           00186     btfsc       pattern,3
0058   2???           00187     goto        kp4
0059   300C           00188     movlw       B'00001100'         ; Here if row 4
005A   ???? ????      00189     banksel     add
005C   04??           00190     iorwf       add,1               ; Form table address
005D   ???? ????      00191     pagesel     col_find
005F   2???           00192     goto        col_find
                      00193     
0060                  00194 kp4
0060   3010           00195     movlw       D'16'               ; No row detected, return "E" via Table
MPASM 5.75  /HOME/ANDREW/MPLABXPROJECTS/LAB9   11-17-2017  14:23:53         PAGE  5


LOC  OBJECT CODE     LINE SOURCE TEXT
  VALUE

0061   ???? ????      00196     pagesel     keypad_op
0063   2???           00197     goto        keypad_op
                      00198     
0064                  00199 col_find        
0064   ???? ????      00200     pagesel     cf1
0066   1900           00201     btfsc       pattern,2
0067   2???           00202     goto        cf1
0068   ???? ????      00203     pagesel     keypad_op
006A   2???           00204     goto        keypad_op           ; Here if column 1, kpad_add stays as is
                      00205     
006B                  00206 cf1
006B   ???? ????      00207     pagesel     cf2
006D   1880           00208     btfsc       pattern,1
006E   2???           00209     goto        cf2
006F   3001           00210     movlw       B'00000001'         ; Here if column 2
0070   ???? ????      00211     banksel     add
0072   04??           00212     iorwf       add,1               ; Form table address
0073   ???? ????      00213     pagesel     keypad_op
0075   2???           00214     goto        keypad_op
                      00215 
0076                  00216 cf2             
0076   3002           00217     movlw       B'00000010'                     
0077   ???? ????      00218     banksel     add
0079   04??           00219     iorwf       add,1               ; Form table address        
                      00220     
007A                  00221 keypad_op       
007A   ???? ????      00222     banksel     add
007C   08??           00223     movf        add,0
007D   ???? ????      00224     pagesel     kplookup
007F   2???           00225     call        kplookup
0080   ???? ????      00226     banksel     ASCII
0082   00??           00227     movwf       ASCII               ; Save the character
0083   1103           00228     bcf         STATUS,Z
0084   3C80           00229     sublw       0x80
0085   ???? ????      00230     pagesel     rst
0087   1903           00231     btfsc       STATUS,Z
0088   2???           00232     goto        rst                 ; ASCII is an error code. Clear it out.
                      00233     
0089                  00234 display
0089   ???? ????      00235     banksel ASCII                   ; Move ASCII into temp_wr
008B   08??           00236     movfw   ASCII
008C   ???? ????      00237     banksel temp_wr     
008E   00??           00238     movwf   temp_wr
008F   ???? ????      00239     pagesel d_write                 ; Write ASCII to LCD
0091   2???           00240     call    d_write
0092   ???? ????      00241     banksel temp_wr
0094   3010           00242     movlw   0x10                    ; Move cursor 1 to the left
0095   00??           00243     movwf   temp_wr
0096   ???? ????      00244     pagesel i_write                 ; Write it to the LCD
0098   2???           00245     call    i_write
0099   ???? ????      00246     pagesel rst
009B   2???           00247     goto    rst
                      00248     
MPASM 5.75  /HOME/ANDREW/MPLABXPROJECTS/LAB9   11-17-2017  14:23:53         PAGE  6


LOC  OBJECT CODE     LINE SOURCE TEXT
  VALUE

009C                  00249 rst                                 ; Reset and go back to loop
009C   ???? ????      00250     banksel ASCII
009E   01??           00251     clrf    ASCII       
009F   01??           00252     clrf    pattern
00A0   ???? ????      00253     pagesel wait
00A2   2???           00254     call    wait
00A3   ???? ????      00255     pagesel kpreset
00A5   2???           00256     call    kpreset
00A6   ???? ????      00257     pagesel loop
00A8   2???           00258     goto    loop
                      00259     
00A9                  00260 kpreset
00A9   1683 1303      00261     banksel TRISC
00AB   30F0           00262     movlw   b'11110000'             ; Read columns
Message[302]: Register in operand not in bank 0.  Ensure that bank bits are correct.
00AC   0087           00263     movwf   TRISC
00AD   1283 1303      00264     banksel PORTC
00AF   3000           00265     movlw   0x00
00B0   0087           00266     movwf   PORTC                   ; Make sure outputs are off
00B1   0008           00267     return
                      00268     
00B2                  00269 wait
00B2   ???? ????      00270     pagesel kpreset                 ; Wait until all buttons are not pressed.
00B4   2???           00271     call    kpreset
00B5   1283 1303      00272     banksel PORTC
00B7   ???? ????      00273     pagesel wait
00B9   1E07           00274     btfss   PORTC,4             
00BA   2???           00275     goto    wait
00BB   1E87           00276     btfss   PORTC,5
00BC   2???           00277     goto    wait
00BD   1F07           00278     btfss   PORTC,6
00BE   2???           00279     goto    wait
00BF   1F87           00280     btfss   PORTC,7
00C0   2???           00281     goto    wait
00C1   0008           00282     return
                      00283     
00C2                  00284 kplookup                        
00C2   ???? ????      00285     banksel add
00C4   08??           00286     movfw   add
00C5   ???? ????      00287     pageselw kp_table           ;Special assembly directive used 'pageselw' so that 
                      00288                                                 ;all 5 upper bits are written. 
                      00289                                                 ;Get the byte read and use it to
00C7   30??           00290     movlw    kp_table           ;index into our jump table. If
00C8   07??           00291     addwf    add,w              ;we crossed a 256-byte boundary,
00C9   1803           00292     btfsc    STATUS,C                ;then increment PCLATH. Then load the
00CA   0A8A           00293     incf     PCLATH,f                 ;program counter with computed goto.
00CB   0082           00294     movwf    PCL    
                      00295     
00CC                  00296 kp_table
00CC   3431           00297     retlw       0x31            ;row 1
00CD   3432           00298     retlw       0x32
00CE   3433           00299     retlw       0x33
00CF   3480           00300     retlw       0x80            ;Error code
MPASM 5.75  /HOME/ANDREW/MPLABXPROJECTS/LAB9   11-17-2017  14:23:53         PAGE  7


LOC  OBJECT CODE     LINE SOURCE TEXT
  VALUE

00D0   3434           00301     retlw       0x34            ;row 2
00D1   3435           00302     retlw       0x35
00D2   3436           00303     retlw       0x36
00D3   3480           00304     retlw       0x80            ;Error code
00D4   3437           00305     retlw       0x37            ;row 3
00D5   3438           00306     retlw       0x38
00D6   3439           00307     retlw       0x39
00D7   3480           00308     retlw       0x80            ;Error code
00D8   342A           00309     retlw       0x2A            ;row 4
00D9   3430           00310     retlw       0x30
00DA   3423           00311     retlw       0x23
00DB   3480           00312     retlw       0x80            ;Error code
00DC   3480           00313     retlw       0x80            ;Error code
                      00314     
3F3A                  00315     END                       ; directive 'end of program'
MPASM 5.75  /HOME/ANDREW/MPLABXPROJECTS/LAB9   11-17-2017  14:23:53         PAGE  8


SYMBOL TABLE
  LABEL                             VALUE 

ACKDT                             00000005
ACKEN                             00000004
ACKSTAT                           00000006
ADCON0                            0000001F
ADCON1                            0000009F
ADCS0                             00000006
ADCS1                             00000007
ADCS2                             00000006
ADDEN                             00000003
ADFM                              00000007
ADIE                              00000006
ADIF                              00000006
ADON                              00000000
ADRESH                            0000001E
ADRESL                            0000009E
ASCII                             00000001
BCLIE                             00000003
BCLIF                             00000003
BF                                00000000
BRGH                              00000002
C                                 00000000
C1INV                             00000004
C1OUT                             00000006
C2INV                             00000005
C2OUT                             00000007
CCP1CON                           00000017
CCP1IE                            00000002
CCP1IF                            00000002
CCP1M0                            00000000
CCP1M1                            00000001
CCP1M2                            00000002
CCP1M3                            00000003
CCP1X                             00000005
CCP1Y                             00000004
CCP2CON                           0000001D
CCP2IE                            00000000
CCP2IF                            00000000
CCP2M0                            00000000
CCP2M1                            00000001
CCP2M2                            00000002
CCP2M3                            00000003
CCP2X                             00000005
CCP2Y                             00000004
CCPR1                             00000015
CCPR1H                            00000016
CCPR1L                            00000015
CCPR2                             0000001B
CCPR2H                            0000001C
CCPR2L                            0000001B
CHS0                              00000003
CHS1                              00000004
CHS2                              00000005
CIS                               00000003
MPASM 5.75  /HOME/ANDREW/MPLABXPROJECTS/LAB9   11-17-2017  14:23:53         PAGE  9


SYMBOL TABLE
  LABEL                             VALUE 

CKE                               00000006
CKP                               00000004
CM0                               00000000
CM1                               00000001
CM2                               00000002
CMCON                             0000009C
CMIE                              00000006
CMIF                              00000006
CREN                              00000004
CSRC                              00000007
CVR0                              00000000
CVR1                              00000001
CVR2                              00000002
CVR3                              00000003
CVRCON                            0000009D
CVREN                             00000007
CVROE                             00000006
CVRR                              00000005
D                                 00000005
DATA_ADDRESS                      00000005
DC                                00000001
D_A                               00000005
D_NOT_A                           00000005
EEADR                             0000010D
EEADRH                            0000010F
EECON1                            0000018C
EECON2                            0000018D
EEDATA                            0000010C
EEDATH                            0000010E
EEIE                              00000004
EEIF                              00000004
EEPGD                             00000007
F                                 00000001
FERR                              00000002
FSR                               00000004
GCEN                              00000007
GIE                               00000007
GO                                00000002
GO_DONE                           00000002
GO_NOT_DONE                       00000002
I2C_DATA                          00000005
I2C_READ                          00000002
I2C_START                         00000003
I2C_STOP                          00000004
IBF                               00000007
IBOV                              00000005
INDF                              00000000
INTCON                            0000000B
INTE                              00000004
INTEDG                            00000006
INTERRUPT                         00000004
INTF                              00000001
IRP                               00000007
MPASM 5.75  /HOME/ANDREW/MPLABXPROJECTS/LAB9   11-17-2017  14:23:53         PAGE 10


SYMBOL TABLE
  LABEL                             VALUE 

LCDInit                           00000000
NOT_A                             00000005
NOT_ADDRESS                       00000005
NOT_BO                            00000000
NOT_BOR                           00000000
NOT_DONE                          00000002
NOT_PD                            00000003
NOT_POR                           00000001
NOT_RBPU                          00000007
NOT_RC8                           00000006
NOT_T1SYNC                        00000002
NOT_TO                            00000004
NOT_TX8                           00000006
NOT_W                             00000002
NOT_WRITE                         00000002
OBF                               00000006
OERR                              00000001
OPTION_REG                        00000081
P                                 00000004
PCFG0                             00000000
PCFG1                             00000001
PCFG2                             00000002
PCFG3                             00000003
PCL                               00000002
PCLATH                            0000000A
PCON                              0000008E
PEIE                              00000006
PEN                               00000002
PIE1                              0000008C
PIE2                              0000008D
PIR1                              0000000C
PIR2                              0000000D
PORTA                             00000005
PORTB                             00000006
PORTC                             00000007
PORTD                             00000008
PORTE                             00000009
PR2                               00000092
PS0                               00000000
PS1                               00000001
PS2                               00000002
PSA                               00000003
PSPIE                             00000007
PSPIF                             00000007
PSPMODE                           00000004
R                                 00000002
RA0                               00000000
RA1                               00000001
RA2                               00000002
RA3                               00000003
RA4                               00000004
RA5                               00000005
RB0                               00000000
MPASM 5.75  /HOME/ANDREW/MPLABXPROJECTS/LAB9   11-17-2017  14:23:53         PAGE 11


SYMBOL TABLE
  LABEL                             VALUE 

RB1                               00000001
RB2                               00000002
RB3                               00000003
RB4                               00000004
RB5                               00000005
RB6                               00000006
RB7                               00000007
RBIE                              00000003
RBIF                              00000000
RC0                               00000000
RC1                               00000001
RC2                               00000002
RC3                               00000003
RC4                               00000004
RC5                               00000005
RC6                               00000006
RC7                               00000007
RC8_9                             00000006
RC9                               00000006
RCD8                              00000000
RCEN                              00000003
RCIE                              00000005
RCIF                              00000005
RCREG                             0000001A
RCSTA                             00000018
RD                                00000000
RD0                               00000000
RD1                               00000001
RD2                               00000002
RD3                               00000003
RD4                               00000004
RD5                               00000005
RD6                               00000006
RD7                               00000007
RE0                               00000000
RE1                               00000001
RE2                               00000002
READ_WRITE                        00000002
RP0                               00000005
RP1                               00000006
RSEN                              00000001
RX9                               00000006
RX9D                              00000000
R_NOT_W                           00000002
R_W                               00000002
S                                 00000003
SEN                               00000000
SMP                               00000007
SPBRG                             00000099
SPEN                              00000007
SREN                              00000005
SSPADD                            00000093
SSPBUF                            00000013
MPASM 5.75  /HOME/ANDREW/MPLABXPROJECTS/LAB9   11-17-2017  14:23:53         PAGE 12


SYMBOL TABLE
  LABEL                             VALUE 

SSPCON                            00000014
SSPCON2                           00000091
SSPEN                             00000005
SSPIE                             00000003
SSPIF                             00000003
SSPM0                             00000000
SSPM1                             00000001
SSPM2                             00000002
SSPM3                             00000003
SSPOV                             00000006
SSPSTAT                           00000094
STATUS                            00000003
SYNC                              00000004
T0CS                              00000005
T0IE                              00000005
T0IF                              00000002
T0SE                              00000004
T1CKPS0                           00000004
T1CKPS1                           00000005
T1CON                             00000010
T1INSYNC                          00000002
T1OSCEN                           00000003
T1SYNC                            00000002
T2CKPS0                           00000000
T2CKPS1                           00000001
T2CON                             00000012
TMR0                              00000001
TMR0IE                            00000005
TMR0IF                            00000002
TMR1                              0000000E
TMR1CS                            00000001
TMR1H                             0000000F
TMR1IE                            00000000
TMR1IF                            00000000
TMR1L                             0000000E
TMR1ON                            00000000
TMR2                              00000011
TMR2IE                            00000001
TMR2IF                            00000001
TMR2ON                            00000002
TOUTPS0                           00000003
TOUTPS1                           00000004
TOUTPS2                           00000005
TOUTPS3                           00000006
TRISA                             00000085
TRISA0                            00000000
TRISA1                            00000001
TRISA2                            00000002
TRISA3                            00000003
TRISA4                            00000004
TRISA5                            00000005
TRISB                             00000086
TRISB0                            00000000
MPASM 5.75  /HOME/ANDREW/MPLABXPROJECTS/LAB9   11-17-2017  14:23:53         PAGE 13


SYMBOL TABLE
  LABEL                             VALUE 

TRISB1                            00000001
TRISB2                            00000002
TRISB3                            00000003
TRISB4                            00000004
TRISB5                            00000005
TRISB6                            00000006
TRISB7                            00000007
TRISC                             00000087
TRISC0                            00000000
TRISC1                            00000001
TRISC2                            00000002
TRISC3                            00000003
TRISC4                            00000004
TRISC5                            00000005
TRISC6                            00000006
TRISC7                            00000007
TRISD                             00000088
TRISD0                            00000000
TRISD1                            00000001
TRISD2                            00000002
TRISD3                            00000003
TRISD4                            00000004
TRISD5                            00000005
TRISD6                            00000006
TRISD7                            00000007
TRISE                             00000089
TRISE0                            00000000
TRISE1                            00000001
TRISE2                            00000002
TRMT                              00000001
TX8_9                             00000006
TX9                               00000006
TX9D                              00000000
TXD8                              00000000
TXEN                              00000005
TXIE                              00000004
TXIF                              00000004
TXREG                             00000019
TXSTA                             00000098
UA                                00000001
W                                 00000000
WCOL                              00000007
WR                                00000001
WREN                              00000002
WRERR                             00000003
Z                                 00000002
_BODEN_OFF                        00003FBF
_BODEN_ON                         00003FFF
_BOREN_OFF                        00003FBF
_BOREN_ON                         00003FFF
_CONFIG                           00002007
_CPD_OFF                          00003FFF
_CPD_ON                           00003EFF
MPASM 5.75  /HOME/ANDREW/MPLABXPROJECTS/LAB9   11-17-2017  14:23:53         PAGE 14


SYMBOL TABLE
  LABEL                             VALUE 

_CP_ALL                           00001FFF
_CP_OFF                           00003FFF
_CP_ON                            00001FFF
_DEBUG_OFF                        00003FFF
_DEBUG_ON                         000037FF
_DEVID1                           00002006
_FOSC_EXTRC                       00003FFF
_FOSC_HS                          00003FFE
_FOSC_LP                          00003FFC
_FOSC_XT                          00003FFD
_HS_OSC                           00003FFE
_IDLOC0                           00002000
_IDLOC1                           00002001
_IDLOC2                           00002002
_IDLOC3                           00002003
_LP_OSC                           00003FFC
_LVP_OFF                          00003F7F
_LVP_ON                           00003FFF
_PWRTE_OFF                        00003FFF
_PWRTE_ON                         00003FF7
_RC_OSC                           00003FFF
_WDTE_OFF                         00003FFB
_WDTE_ON                          00003FFF
_WDT_OFF                          00003FFB
_WDT_ON                           00003FFF
_WRT_1FOURTH                      00003BFF
_WRT_256                          00003DFF
_WRT_HALF                         000039FF
_WRT_OFF                          00003FFF
_XT_OSC                           00003FFD
__16F877A                         00000001
add                               00000002
cf1                               0000006B
cf2                               00000076
col_find                          00000064
convert                           00000033
count                             00000000
d_write                           00000000
display                           00000089
flag                              00000000
i_write                           00000000
keypad_op                         0000007A
kp1                               0000003F
kp2                               0000004A
kp3                               00000055
kp4                               00000060
kp_table                          000000CC
kplookup                          000000C2
kpread                            00000021
kpreset                           000000A9
loop                              00000011
pattern                           00000003
pclath_temp                       00000002
MPASM 5.75  /HOME/ANDREW/MPLABXPROJECTS/LAB9   11-17-2017  14:23:53         PAGE 15


SYMBOL TABLE
  LABEL                             VALUE 

rst                               0000009C
start                             00000000
status_temp                       00000001
temp_count                        00000000
temp_wr                           00000000
w_temp                            00000000
wait                              000000B2

Errors   :     0
Warnings :     4 reported,     0 suppressed
Messages :     3 reported,     0 suppressed

